; Function Attrs: nofree norecurse nosync nounwind memory(argmem: read) uwtable
define dso_local i32 @bpchartruelen(ptr noundef readonly captures(none) %0, i32 noundef %1) local_unnamed_addr #7 {
  %3 = zext i32 %1 to i64
  %4 = add i32 %1, -1
  %smin = tail call i32 @llvm.smin.i32(i32 %4, i32 -1)
  %5 = add nsw i32 %smin, 1
  br label %6

6:                                                ; preds = %9, %2
  %indvars.iv = phi i64 [ %indvars.iv.next, %9 ], [ %3, %2 ]
  %indvars.iv.next = add nsw i64 %indvars.iv, -1
  %7 = and i64 %indvars.iv.next, 2147483648
  %8 = icmp eq i64 %7, 0
  br i1 %8, label %9, label %.split.loop.exit6

9:                                                ; preds = %6
  %10 = and i64 %indvars.iv.next, 2147483647
  %11 = getelementptr inbounds nuw i8, ptr %0, i64 %10
  %12 = load i8, ptr %11, align 1
  %.not = icmp eq i8 %12, 32
  br i1 %.not, label %6, label %.split.loop.exit, !llvm.loop !12

.split.loop.exit:                                 ; preds = %9
  %13 = trunc nuw i64 %indvars.iv to i32
  br label %.split.loop.exit6

.split.loop.exit6:                                ; preds = %6, %.split.loop.exit
  %.0.in.lcssa = phi i32 [ %13, %.split.loop.exit ], [ %5, %6 ]
  ret i32 %.0.in.lcssa
}